target datalayout = "e-m:e-p270:32:32-p271:32:32-p272:64:64-i64:64-i128:128-f80:128-n8:16:32:64-S128"
target triple = "x86_64-pc-linux-gnu"

%struct.BrinOpcInfo = type { i16, i8, ptr, [0 x ptr] }
%struct.FunctionCallInfoBaseData = type { ptr, ptr, ptr, i32, i8, i16, [0 x %struct.NullableDatum] }
%struct.NullableDatum = type { i64, i8 }
%struct.BrinValues = type { i16, i8, i8, ptr, i64, ptr, ptr }
%struct.BloomFilter = type { i32, i16, i8, i32, i32, [0 x i8] }
%struct.BrinDesc = type { ptr, ptr, ptr, ptr, i32, [0 x ptr] }
%struct.BloomOpaque = type { [1 x %struct.FmgrInfo], [1 x i8] }
%struct.FmgrInfo = type { ptr, i32, i16, i8, i8, i8, ptr, ptr, ptr }
%struct.ScanKeyData = type { i32, i16, i16, i32, i32, %struct.FmgrInfo, i64 }

@.str = private unnamed_addr constant [27 x i8] c"invalid strategy number %d\00", align 1
@.str.1 = private unnamed_addr constant [13 x i8] c"brin_bloom.c\00", align 1
@__func__.brin_bloom_consistent = private unnamed_addr constant [22 x i8] c"brin_bloom_consistent\00", align 1

; Function Attrs: inlinehint nounwind uwtable
define internal i64 @BoolGetDatum(i1 noundef zeroext %0) #3 {
  %2 = alloca i8, align 1
  %3 = zext i1 %0 to i8
  store i8 %3, ptr %2, align 1
  %4 = load i8, ptr %2, align 1, !range !4, !noundef !5
  %5 = trunc i8 %4 to i1
  %6 = select i1 %5, i32 1, i32 0
  %7 = sext i32 %6 to i64
  ret i64 %7
}

; Function Attrs: nounwind uwtable
define internal zeroext i1 @bloom_contains_value(ptr noundef %0, i32 noundef %1) #0 {
  %3 = alloca i1, align 1
  %4 = alloca ptr, align 8
  %5 = alloca i32, align 4
  %6 = alloca i32, align 4
  %7 = alloca i64, align 8
  %8 = alloca i64, align 8
  %9 = alloca i32, align 4
  %10 = alloca i32, align 4
  %11 = alloca i32, align 4
  %12 = alloca i32, align 4
  store ptr %0, ptr %4, align 8
  store i32 %1, ptr %5, align 4
  call void @llvm.lifetime.start.p0(i64 4, ptr %6) #7
  call void @llvm.lifetime.start.p0(i64 8, ptr %7) #7
  call void @llvm.lifetime.start.p0(i64 8, ptr %8) #7
  %13 = load i32, ptr %5, align 4
  %14 = call i64 @hash_bytes_uint32_extended(i32 noundef %13, i64 noundef 1910056111)
  %15 = load ptr, ptr %4, align 8
  %16 = getelementptr inbounds nuw %struct.BloomFilter, ptr %15, i32 0, i32 3
  %17 = load i32, ptr %16, align 4
  %18 = zext i32 %17 to i64
  %19 = urem i64 %14, %18
  store i64 %19, ptr %7, align 8
  %20 = load i32, ptr %5, align 4
  %21 = call i64 @hash_bytes_uint32_extended(i32 noundef %20, i64 noundef 3125326612)
  %22 = load ptr, ptr %4, align 8
  %23 = getelementptr inbounds nuw %struct.BloomFilter, ptr %22, i32 0, i32 3
  %24 = load i32, ptr %23, align 4
  %25 = zext i32 %24 to i64
  %26 = urem i64 %21, %25
  store i64 %26, ptr %8, align 8
  store i32 0, ptr %6, align 4
  br label %27

27:                                               ; preds = %67, %2
  %28 = load i32, ptr %6, align 4
  %29 = load ptr, ptr %4, align 8
  %30 = getelementptr inbounds nuw %struct.BloomFilter, ptr %29, i32 0, i32 2
  %31 = load i8, ptr %30, align 2
  %32 = zext i8 %31 to i32
  %33 = icmp slt i32 %28, %32
  br i1 %33, label %34, label %70

34:                                               ; preds = %27
  call void @llvm.lifetime.start.p0(i64 4, ptr %9) #7
  %35 = load i64, ptr %7, align 8
  %36 = load i32, ptr %6, align 4
  %37 = sext i32 %36 to i64
  %38 = load i64, ptr %8, align 8
  %39 = mul i64 %37, %38
  %40 = add i64 %35, %39
  %41 = load ptr, ptr %4, align 8
  %42 = getelementptr inbounds nuw %struct.BloomFilter, ptr %41, i32 0, i32 3
  %43 = load i32, ptr %42, align 4
  %44 = zext i32 %43 to i64
  %45 = urem i64 %40, %44
  %46 = trunc i64 %45 to i32
  store i32 %46, ptr %9, align 4
  call void @llvm.lifetime.start.p0(i64 4, ptr %10) #7
  %47 = load i32, ptr %9, align 4
  %48 = udiv i32 %47, 8
  store i32 %48, ptr %10, align 4
  call void @llvm.lifetime.start.p0(i64 4, ptr %11) #7
  %49 = load i32, ptr %9, align 4
  %50 = urem i32 %49, 8
  store i32 %50, ptr %11, align 4
  %51 = load ptr, ptr %4, align 8
  %52 = getelementptr inbounds nuw %struct.BloomFilter, ptr %51, i32 0, i32 5
  %53 = load i32, ptr %10, align 4
  %54 = zext i32 %53 to i64
  %55 = getelementptr inbounds nuw [0 x i8], ptr %52, i64 0, i64 %54
  %56 = load i8, ptr %55, align 1
  %57 = sext i8 %56 to i32
  %58 = load i32, ptr %11, align 4
  %59 = shl i32 1, %58
  %60 = and i32 %57, %59
  %61 = icmp ne i32 %60, 0
  br i1 %61, label %63, label %62

62:                                               ; preds = %34
  store i1 false, ptr %3, align 1
  store i32 1, ptr %12, align 4
  br label %64

63:                                               ; preds = %34
  store i32 0, ptr %12, align 4
  br label %64

64:                                               ; preds = %63, %62
  call void @llvm.lifetime.end.p0(i64 4, ptr %11) #7
  call void @llvm.lifetime.end.p0(i64 4, ptr %10) #7
  call void @llvm.lifetime.end.p0(i64 4, ptr %9) #7
  %65 = load i32, ptr %12, align 4
  switch i32 %65, label %71 [
    i32 0, label %66
  ]

66:                                               ; preds = %64
  br label %67

67:                                               ; preds = %66
  %68 = load i32, ptr %6, align 4
  %69 = add i32 %68, 1
  store i32 %69, ptr %6, align 4
  br label %27, !llvm.loop !9

70:                                               ; preds = %27
  store i1 true, ptr %3, align 1
  store i32 1, ptr %12, align 4
  br label %71

71:                                               ; preds = %70, %64
  call void @llvm.lifetime.end.p0(i64 8, ptr %8) #7
  call void @llvm.lifetime.end.p0(i64 8, ptr %7) #7
  call void @llvm.lifetime.end.p0(i64 4, ptr %6) #7
  %72 = load i1, ptr %3, align 1
  ret i1 %72
}

; Function Attrs: inlinehint nounwind uwtable
define internal i32 @DatumGetUInt32(i64 noundef %0) #3 {
  %2 = alloca i64, align 8
  store i64 %0, ptr %2, align 8
  %3 = load i64, ptr %2, align 8
  %4 = trunc i64 %3 to i32
  ret i32 %4
}

; Function Attrs: nounwind uwtable
define internal ptr @bloom_get_procinfo(ptr noundef %0, i16 noundef zeroext %1, i16 noundef zeroext %2) #0 {
  %4 = alloca ptr, align 8
  %5 = alloca ptr, align 8
  %6 = alloca i16, align 2
  %7 = alloca i16, align 2
  %8 = alloca ptr, align 8
  %9 = alloca i16, align 2
  %10 = alloca i32, align 4
  store ptr %0, ptr %5, align 8
  store i16 %1, ptr %6, align 2
  store i16 %2, ptr %7, align 2
  call void @llvm.lifetime.start.p0(i64 8, ptr %8) #7
  call void @llvm.lifetime.start.p0(i64 2, ptr %9) #7
  %11 = load i16, ptr %7, align 2
  %12 = zext i16 %11 to i32
  %13 = sub i32 %12, 11
  %14 = trunc i32 %13 to i16
  store i16 %14, ptr %9, align 2
  %15 = load ptr, ptr %5, align 8
  %16 = getelementptr inbounds nuw %struct.BrinDesc, ptr %15, i32 0, i32 5
  %17 = load i16, ptr %6, align 2
  %18 = zext i16 %17 to i32
  %19 = sub i32 %18, 1
  %20 = sext i32 %19 to i64
  %21 = getelementptr inbounds [0 x ptr], ptr %16, i64 0, i64 %20
  %22 = load ptr, ptr %21, align 8
  %23 = getelementptr inbounds nuw %struct.BrinOpcInfo, ptr %22, i32 0, i32 2
  %24 = load ptr, ptr %23, align 8
  store ptr %24, ptr %8, align 8
  %25 = load ptr, ptr %8, align 8
  %26 = getelementptr inbounds nuw %struct.BloomOpaque, ptr %25, i32 0, i32 1
  %27 = load i16, ptr %9, align 2
  %28 = zext i16 %27 to i64
  %29 = getelementptr inbounds nuw [1 x i8], ptr %26, i64 0, i64 %28
  %30 = load i8, ptr %29, align 1, !range !4, !noundef !5
  %31 = trunc i8 %30 to i1
  br i1 %31, label %32, label %33

32:                                               ; preds = %3
  store ptr null, ptr %4, align 8
  store i32 1, ptr %10, align 4
  br label %78

33:                                               ; preds = %3
  %34 = load ptr, ptr %8, align 8
  %35 = getelementptr inbounds nuw %struct.BloomOpaque, ptr %34, i32 0, i32 0
  %36 = load i16, ptr %9, align 2
  %37 = zext i16 %36 to i64
  %38 = getelementptr inbounds nuw [1 x %struct.FmgrInfo], ptr %35, i64 0, i64 %37
  %39 = getelementptr inbounds nuw %struct.FmgrInfo, ptr %38, i32 0, i32 1
  %40 = load i32, ptr %39, align 8
  %41 = icmp eq i32 %40, 0
  br i1 %41, label %42, label %72

42:                                               ; preds = %33
  %43 = load ptr, ptr %5, align 8
  %44 = getelementptr inbounds nuw %struct.BrinDesc, ptr %43, i32 0, i32 1
  %45 = load ptr, ptr %44, align 8
  %46 = load i16, ptr %6, align 2
  %47 = load i16, ptr %7, align 2
  %48 = call i32 @index_getprocid(ptr noundef %45, i16 noundef signext %46, i16 noundef zeroext %47)
  %49 = icmp ne i32 %48, 0
  br i1 %49, label %50, label %65

50:                                               ; preds = %42
  %51 = load ptr, ptr %8, align 8
  %52 = getelementptr inbounds nuw %struct.BloomOpaque, ptr %51, i32 0, i32 0
  %53 = load i16, ptr %9, align 2
  %54 = zext i16 %53 to i64
  %55 = getelementptr inbounds nuw [1 x %struct.FmgrInfo], ptr %52, i64 0, i64 %54
  %56 = load ptr, ptr %5, align 8
  %57 = getelementptr inbounds nuw %struct.BrinDesc, ptr %56, i32 0, i32 1
  %58 = load ptr, ptr %57, align 8
  %59 = load i16, ptr %6, align 2
  %60 = load i16, ptr %7, align 2
  %61 = call ptr @index_getprocinfo(ptr noundef %58, i16 noundef signext %59, i16 noundef zeroext %60)
  %62 = load ptr, ptr %5, align 8
  %63 = getelementptr inbounds nuw %struct.BrinDesc, ptr %62, i32 0, i32 0
  %64 = load ptr, ptr %63, align 8
  call void @fmgr_info_copy(ptr noundef %55, ptr noundef %61, ptr noundef %64)
  br label %71

65:                                               ; preds = %42
  %66 = load ptr, ptr %8, align 8
  %67 = getelementptr inbounds nuw %struct.BloomOpaque, ptr %66, i32 0, i32 1
  %68 = load i16, ptr %9, align 2
  %69 = zext i16 %68 to i64
  %70 = getelementptr inbounds nuw [1 x i8], ptr %67, i64 0, i64 %69
  store i8 1, ptr %70, align 1
  store ptr null, ptr %4, align 8
  store i32 1, ptr %10, align 4
  br label %78

71:                                               ; preds = %50
  br label %72

72:                                               ; preds = %71, %33
  %73 = load ptr, ptr %8, align 8
  %74 = getelementptr inbounds nuw %struct.BloomOpaque, ptr %73, i32 0, i32 0
  %75 = load i16, ptr %9, align 2
  %76 = zext i16 %75 to i64
  %77 = getelementptr inbounds nuw [1 x %struct.FmgrInfo], ptr %74, i64 0, i64 %76
  store ptr %77, ptr %4, align 8
  store i32 1, ptr %10, align 4
  br label %78

78:                                               ; preds = %72, %65, %32
  call void @llvm.lifetime.end.p0(i64 2, ptr %9) #7
  call void @llvm.lifetime.end.p0(i64 8, ptr %8) #7
  %79 = load ptr, ptr %4, align 8
  ret ptr %79
}

; Function Attrs: inlinehint nounwind uwtable
define internal i32 @DatumGetInt32(i64 noundef %0) #3 {
  %2 = alloca i64, align 8
  store i64 %0, ptr %2, align 8
  %3 = load i64, ptr %2, align 8
  %4 = trunc i64 %3 to i32
  ret i32 %4
}

; Function Attrs: inlinehint nounwind uwtable
define internal ptr @DatumGetPointer(i64 noundef %0) #3 {
  %2 = alloca i64, align 8
  store i64 %0, ptr %2, align 8
  %3 = load i64, ptr %2, align 8
  %4 = inttoptr i64 %3 to ptr
  ret ptr %4
}

; Function Attrs: nounwind uwtable
define dso_local i64 @brin_bloom_consistent(ptr noundef %0) #0 {
  %2 = alloca ptr, align 8
  %3 = alloca ptr, align 8
  %4 = alloca ptr, align 8
  %5 = alloca ptr, align 8
  %6 = alloca i32, align 4
  %7 = alloca i32, align 4
  %8 = alloca i16, align 2
  %9 = alloca i64, align 8
  %10 = alloca i8, align 1
  %11 = alloca ptr, align 8
  %12 = alloca i32, align 4
  %13 = alloca ptr, align 8
  %14 = alloca i32, align 4
  %15 = alloca ptr, align 8
  %16 = alloca i32, align 4
  store ptr %0, ptr %2, align 8
  call void @llvm.lifetime.start.p0(i64 8, ptr %3) #7
  %17 = load ptr, ptr %2, align 8
  %18 = getelementptr inbounds nuw %struct.FunctionCallInfoBaseData, ptr %17, i32 0, i32 6
  %19 = getelementptr inbounds [0 x %struct.NullableDatum], ptr %18, i64 0, i64 0
  %20 = getelementptr inbounds nuw %struct.NullableDatum, ptr %19, i32 0, i32 0
  %21 = load i64, ptr %20, align 8
  %22 = call ptr @DatumGetPointer(i64 noundef %21)
  store ptr %22, ptr %3, align 8
  call void @llvm.lifetime.start.p0(i64 8, ptr %4) #7
  %23 = load ptr, ptr %2, align 8
  %24 = getelementptr inbounds nuw %struct.FunctionCallInfoBaseData, ptr %23, i32 0, i32 6
  %25 = getelementptr inbounds [0 x %struct.NullableDatum], ptr %24, i64 0, i64 1
  %26 = getelementptr inbounds nuw %struct.NullableDatum, ptr %25, i32 0, i32 0
  %27 = load i64, ptr %26, align 8
  %28 = call ptr @DatumGetPointer(i64 noundef %27)
  store ptr %28, ptr %4, align 8
  call void @llvm.lifetime.start.p0(i64 8, ptr %5) #7
  %29 = load ptr, ptr %2, align 8
  %30 = getelementptr inbounds nuw %struct.FunctionCallInfoBaseData, ptr %29, i32 0, i32 6
  %31 = getelementptr inbounds [0 x %struct.NullableDatum], ptr %30, i64 0, i64 2
  %32 = getelementptr inbounds nuw %struct.NullableDatum, ptr %31, i32 0, i32 0
  %33 = load i64, ptr %32, align 8
  %34 = call ptr @DatumGetPointer(i64 noundef %33)
  store ptr %34, ptr %5, align 8
  call void @llvm.lifetime.start.p0(i64 4, ptr %6) #7
  %35 = load ptr, ptr %2, align 8
  %36 = getelementptr inbounds nuw %struct.FunctionCallInfoBaseData, ptr %35, i32 0, i32 6
  %37 = getelementptr inbounds [0 x %struct.NullableDatum], ptr %36, i64 0, i64 3
  %38 = getelementptr inbounds nuw %struct.NullableDatum, ptr %37, i32 0, i32 0
  %39 = load i64, ptr %38, align 8
  %40 = call i32 @DatumGetInt32(i64 noundef %39)
  store i32 %40, ptr %6, align 4
  call void @llvm.lifetime.start.p0(i64 4, ptr %7) #7
  %41 = load ptr, ptr %2, align 8
  %42 = getelementptr inbounds nuw %struct.FunctionCallInfoBaseData, ptr %41, i32 0, i32 3
  %43 = load i32, ptr %42, align 8
  store i32 %43, ptr %7, align 4
  call void @llvm.lifetime.start.p0(i64 2, ptr %8) #7
  call void @llvm.lifetime.start.p0(i64 8, ptr %9) #7
  call void @llvm.lifetime.start.p0(i64 1, ptr %10) #7
  call void @llvm.lifetime.start.p0(i64 8, ptr %11) #7
  call void @llvm.lifetime.start.p0(i64 4, ptr %12) #7
  call void @llvm.lifetime.start.p0(i64 8, ptr %13) #7
  call void @llvm.lifetime.start.p0(i64 4, ptr %14) #7
  %44 = load ptr, ptr %4, align 8
  %45 = getelementptr inbounds nuw %struct.BrinValues, ptr %44, i32 0, i32 3
  %46 = load ptr, ptr %45, align 8
  %47 = getelementptr inbounds i64, ptr %46, i64 0
  %48 = load i64, ptr %47, align 8
  %49 = call ptr @DatumGetPointer(i64 noundef %48)
  %50 = call ptr @pg_detoast_datum(ptr noundef %49)
  store ptr %50, ptr %13, align 8
  store i8 1, ptr %10, align 1
  store i32 0, ptr %14, align 4
  br label %51

51:                                               ; preds = %113, %1
  %52 = load i32, ptr %14, align 4
  %53 = load i32, ptr %6, align 4
  %54 = icmp slt i32 %52, %53
  br i1 %54, label %55, label %116

55:                                               ; preds = %51
  call void @llvm.lifetime.start.p0(i64 8, ptr %15) #7
  %56 = load ptr, ptr %5, align 8
  %57 = load i32, ptr %14, align 4
  %58 = sext i32 %57 to i64
  %59 = getelementptr inbounds ptr, ptr %56, i64 %58
  %60 = load ptr, ptr %59, align 8
  store ptr %60, ptr %15, align 8
  %61 = load ptr, ptr %15, align 8
  %62 = getelementptr inbounds nuw %struct.ScanKeyData, ptr %61, i32 0, i32 1
  %63 = load i16, ptr %62, align 4
  store i16 %63, ptr %8, align 2
  %64 = load ptr, ptr %15, align 8
  %65 = getelementptr inbounds nuw %struct.ScanKeyData, ptr %64, i32 0, i32 6
  %66 = load i64, ptr %65, align 8
  store i64 %66, ptr %9, align 8
  %67 = load ptr, ptr %15, align 8
  %68 = getelementptr inbounds nuw %struct.ScanKeyData, ptr %67, i32 0, i32 2
  %69 = load i16, ptr %68, align 2
  %70 = zext i16 %69 to i32
  switch i32 %70, label %90 [
    i32 1, label %71
  ]

71:                                               ; preds = %55
  %72 = load ptr, ptr %3, align 8
  %73 = load i16, ptr %8, align 2
  %74 = call ptr @bloom_get_procinfo(ptr noundef %72, i16 noundef zeroext %73, i16 noundef zeroext 11)
  store ptr %74, ptr %11, align 8
  %75 = load ptr, ptr %11, align 8
  %76 = load i32, ptr %7, align 4
  %77 = load i64, ptr %9, align 8
  %78 = call i64 @FunctionCall1Coll(ptr noundef %75, i32 noundef %76, i64 noundef %77)
  %79 = call i32 @DatumGetUInt32(i64 noundef %78)
  store i32 %79, ptr %12, align 4
  %80 = load ptr, ptr %13, align 8
  %81 = load i32, ptr %12, align 4
  %82 = call zeroext i1 @bloom_contains_value(ptr noundef %80, i32 noundef %81)
  %83 = zext i1 %82 to i32
  %84 = load i8, ptr %10, align 1, !range !4, !noundef !5
  %85 = trunc i8 %84 to i1
  %86 = zext i1 %85 to i32
  %87 = and i32 %86, %83
  %88 = icmp ne i32 %87, 0
  %89 = zext i1 %88 to i8
  store i8 %89, ptr %10, align 1
  br label %105

90:                                               ; preds = %55
  br label %91

91:                                               ; preds = %90
  br i1 true, label %92, label %94

92:                                               ; preds = %91
  %93 = call zeroext i1 @errstart_cold(i32 noundef 21, ptr noundef null) #8
  br i1 %93, label %96, label %102

94:                                               ; preds = %91
  %95 = call zeroext i1 @errstart(i32 noundef 21, ptr noundef null)
  br i1 %95, label %96, label %102

96:                                               ; preds = %94, %92
  %97 = load ptr, ptr %15, align 8
  %98 = getelementptr inbounds nuw %struct.ScanKeyData, ptr %97, i32 0, i32 2
  %99 = load i16, ptr %98, align 2
  %100 = zext i16 %99 to i32
  %101 = call i32 (ptr, ...) @errmsg_internal(ptr noundef @.str, i32 noundef %100)
  call void @errfinish(ptr noundef @.str.1, i32 noundef 645, ptr noundef @__func__.brin_bloom_consistent)
  br label %102

102:                                              ; preds = %96, %94, %92
  unreachable

103:                                              ; No predecessors!
  br label %104

104:                                              ; preds = %103
  store i8 0, ptr %10, align 1
  br label %105

105:                                              ; preds = %104, %71
  %106 = load i8, ptr %10, align 1, !range !4, !noundef !5
  %107 = trunc i8 %106 to i1
  br i1 %107, label %109, label %108

108:                                              ; preds = %105
  store i32 2, ptr %16, align 4
  br label %110

109:                                              ; preds = %105
  store i32 0, ptr %16, align 4
  br label %110

110:                                              ; preds = %109, %108
  call void @llvm.lifetime.end.p0(i64 8, ptr %15) #7
  %111 = load i32, ptr %16, align 4
  switch i32 %111, label %120 [
    i32 0, label %112
    i32 2, label %116
  ]

112:                                              ; preds = %110
  br label %113

113:                                              ; preds = %112
  %114 = load i32, ptr %14, align 4
  %115 = add i32 %114, 1
  store i32 %115, ptr %14, align 4
  br label %51, !llvm.loop !8

116:                                              ; preds = %110, %51
  %117 = load i8, ptr %10, align 1, !range !4, !noundef !5
  %118 = trunc i8 %117 to i1
  %119 = call i64 @BoolGetDatum(i1 noundef zeroext %118)
  store i32 1, ptr %16, align 4
  call void @llvm.lifetime.end.p0(i64 4, ptr %14) #7
  call void @llvm.lifetime.end.p0(i64 8, ptr %13) #7
  call void @llvm.lifetime.end.p0(i64 4, ptr %12) #7
  call void @llvm.lifetime.end.p0(i64 8, ptr %11) #7
  call void @llvm.lifetime.end.p0(i64 1, ptr %10) #7
  call void @llvm.lifetime.end.p0(i64 8, ptr %9) #7
  call void @llvm.lifetime.end.p0(i64 2, ptr %8) #7
  call void @llvm.lifetime.end.p0(i64 4, ptr %7) #7
  call void @llvm.lifetime.end.p0(i64 4, ptr %6) #7
  call void @llvm.lifetime.end.p0(i64 8, ptr %5) #7
  call void @llvm.lifetime.end.p0(i64 8, ptr %4) #7
  call void @llvm.lifetime.end.p0(i64 8, ptr %3) #7
  ret i64 %119

120:                                              ; preds = %110
  unreachable
}