; Function Attrs: nounwind uwtable
define dso_local range(i64 0, 2) i64 @brin_bloom_consistent(ptr noundef readonly captures(none) %0) local_unnamed_addr #0 {
  %2 = getelementptr inbounds nuw i8, ptr %0, i64 32
  %3 = load i64, ptr %2, align 8
  %4 = inttoptr i64 %3 to ptr
  %5 = getelementptr inbounds nuw i8, ptr %0, i64 48
  %6 = load i64, ptr %5, align 8
  %7 = inttoptr i64 %6 to ptr
  %8 = getelementptr inbounds nuw i8, ptr %0, i64 64
  %9 = load i64, ptr %8, align 8
  %10 = inttoptr i64 %9 to ptr
  %11 = getelementptr inbounds nuw i8, ptr %0, i64 80
  %12 = load i64, ptr %11, align 8
  %13 = trunc i64 %12 to i32
  %14 = getelementptr inbounds nuw i8, ptr %0, i64 24
  %15 = load i32, ptr %14, align 8
  %16 = getelementptr inbounds nuw i8, ptr %7, i64 8
  %17 = load ptr, ptr %16, align 8
  %18 = load i64, ptr %17, align 8
  %19 = inttoptr i64 %18 to ptr
  %20 = tail call ptr @pg_detoast_datum(ptr noundef %19) #8
  %21 = icmp slt i32 %13, 1
  br i1 %21, label %bloom_contains_value.exit.thread, label %.lr.ph

.lr.ph:                                           ; preds = %1
  %22 = getelementptr inbounds nuw i8, ptr %4, i64 40
  %23 = getelementptr inbounds nuw i8, ptr %4, i64 8
  %24 = getelementptr inbounds nuw i8, ptr %20, i64 8
  %25 = getelementptr inbounds nuw i8, ptr %20, i64 6
  %26 = getelementptr inbounds nuw i8, ptr %20, i64 16
  %wide.trip.count = and i64 %12, 2147483647
  br label %27

27:                                               ; preds = %.lr.ph, %bloom_contains_value.exit
  %indvars.iv = phi i64 [ 0, %.lr.ph ], [ %indvars.iv.next, %bloom_contains_value.exit ]
  %28 = getelementptr inbounds nuw ptr, ptr %10, i64 %indvars.iv
  %29 = load ptr, ptr %28, align 8
  %30 = getelementptr inbounds nuw i8, ptr %29, i64 6
  %31 = load i16, ptr %30, align 2
  %cond = icmp eq i16 %31, 1
  br i1 %cond, label %32, label %83

32:                                               ; preds = %27
  %33 = getelementptr inbounds nuw i8, ptr %29, i64 64
  %34 = load i64, ptr %33, align 8
  %35 = getelementptr inbounds nuw i8, ptr %29, i64 4
  %36 = load i16, ptr %35, align 4
  %37 = zext i16 %36 to i64
  %38 = add nsw i64 %37, -1
  %39 = getelementptr inbounds [0 x ptr], ptr %22, i64 0, i64 %38
  %40 = load ptr, ptr %39, align 8
  %41 = getelementptr inbounds nuw i8, ptr %40, i64 8
  %42 = load ptr, ptr %41, align 8
  %43 = getelementptr inbounds nuw i8, ptr %42, i64 48
  %44 = load i8, ptr %43, align 1, !range !4, !noundef !5
  %45 = trunc nuw i8 %44 to i1
  br i1 %45, label %bloom_get_procinfo.exit, label %46

46:                                               ; preds = %32
  %47 = getelementptr inbounds nuw i8, ptr %42, i64 8
  %48 = load i32, ptr %47, align 8
  %49 = icmp eq i32 %48, 0
  br i1 %49, label %50, label %bloom_get_procinfo.exit

50:                                               ; preds = %46
  %51 = load ptr, ptr %23, align 8
  %52 = tail call i32 @index_getprocid(ptr noundef %51, i16 noundef signext %36, i16 noundef zeroext 11) #8
  %.not.i = icmp eq i32 %52, 0
  br i1 %.not.i, label %57, label %53

53:                                               ; preds = %50
  %54 = load ptr, ptr %23, align 8
  %55 = tail call ptr @index_getprocinfo(ptr noundef %54, i16 noundef signext %36, i16 noundef zeroext 11) #8
  %56 = load ptr, ptr %4, align 8
  tail call void @fmgr_info_copy(ptr noundef nonnull %42, ptr noundef %55, ptr noundef %56) #8
  br label %bloom_get_procinfo.exit

57:                                               ; preds = %50
  store i8 1, ptr %43, align 1
  br label %bloom_get_procinfo.exit

bloom_get_procinfo.exit:                          ; preds = %32, %46, %53, %57
  %.0.i = phi ptr [ null, %57 ], [ null, %32 ], [ %42, %53 ], [ %42, %46 ]
  %58 = tail call i64 @FunctionCall1Coll(ptr noundef %.0.i, i32 noundef %15, i64 noundef %34) #8
  %59 = trunc i64 %58 to i32
  %60 = tail call i64 @hash_bytes_uint32_extended(i32 noundef %59, i64 noundef 1910056111) #8
  %61 = load i32, ptr %24, align 4
  %62 = zext i32 %61 to i64
  %63 = urem i64 %60, %62
  %64 = tail call i64 @hash_bytes_uint32_extended(i32 noundef %59, i64 noundef 3125326612) #8
  %65 = load i32, ptr %24, align 4
  %66 = zext i32 %65 to i64
  %67 = urem i64 %64, %66
  %68 = load i8, ptr %25, align 2
  %69 = icmp eq i8 %68, 0
  br i1 %69, label %bloom_contains_value.exit, label %.lr.ph.i

.lr.ph.i:                                         ; preds = %bloom_get_procinfo.exit
  %wide.trip.count.i = zext i8 %68 to i64
  br label %71

70:                                               ; preds = %71
  %indvars.iv.next.i = add nuw nsw i64 %indvars.iv.i, 1
  %exitcond.not.i = icmp eq i64 %indvars.iv.next.i, %wide.trip.count.i
  br i1 %exitcond.not.i, label %bloom_contains_value.exit, label %71, !llvm.loop !8

71:                                               ; preds = %70, %.lr.ph.i
  %indvars.iv.i = phi i64 [ 0, %.lr.ph.i ], [ %indvars.iv.next.i, %70 ]
  %72 = mul nuw nsw i64 %indvars.iv.i, %67
  %73 = add nuw nsw i64 %72, %63
  %74 = urem i64 %73, %66
  %75 = trunc nuw i64 %74 to i32
  %76 = lshr i64 %74, 3
  %77 = and i32 %75, 7
  %78 = getelementptr inbounds nuw [0 x i8], ptr %26, i64 0, i64 %76
  %79 = load i8, ptr %78, align 1
  %80 = zext i8 %79 to i32
  %81 = shl nuw nsw i32 1, %77
  %82 = and i32 %81, %80
  %.not.not.not.i = icmp eq i32 %82, 0
  br i1 %.not.not.not.i, label %bloom_contains_value.exit.thread, label %70

bloom_contains_value.exit:                        ; preds = %70, %bloom_get_procinfo.exit
  %indvars.iv.next = add nuw nsw i64 %indvars.iv, 1
  %exitcond.not = icmp eq i64 %indvars.iv.next, %wide.trip.count
  br i1 %exitcond.not, label %bloom_contains_value.exit.thread, label %27, !llvm.loop !9

83:                                               ; preds = %27
  %84 = getelementptr inbounds nuw i8, ptr %29, i64 6
  %85 = tail call zeroext i1 @errstart_cold(i32 noundef 21, ptr noundef null) #9
  tail call void @llvm.assume(i1 %85)
  %86 = load i16, ptr %84, align 2
  %87 = zext i16 %86 to i32
  %88 = tail call i32 (ptr, ...) @errmsg_internal(ptr noundef nonnull @.str, i32 noundef %87) #8
  tail call void @errfinish(ptr noundef nonnull @.str.1, i32 noundef 645, ptr noundef nonnull @__func__.brin_bloom_consistent) #8
  unreachable

bloom_contains_value.exit.thread:                 ; preds = %bloom_contains_value.exit, %71, %1
  %89 = phi i64 [ 1, %1 ], [ 0, %71 ], [ 1, %bloom_contains_value.exit ]
  ret i64 %89
}